; Function Attrs: nounwind uwtable
define internal void @zend_extension_activator(ptr nocapture noundef readonly %0) #0 {
  %2 = getelementptr inbounds i8, ptr %0, i64 56
  %3 = load ptr, ptr %2, align 8
  %.not = icmp eq ptr %3, null
  br i1 %.not, label %5, label %4

4:                                                ; preds = %1
  tail call void %3() #24
  br label %5

5:                                                ; preds = %4, %1
  ret void
}